; Function Attrs: mustprogress uwtable
define hidden void @_ZN5osgeo4proj3crs14EngineeringCRSC2ERKS2_(ptr nocapture noundef nonnull align 8 dereferenceable(16) %0, ptr nocapture noundef readonly %1, ptr nocapture noundef nonnull readonly align 8 dereferenceable(16) %2) unnamed_addr #6 align 2 personality ptr @__gxx_personality_v0 {
  %4 = load ptr, ptr %1, align 8
  store ptr %4, ptr %0, align 8
  %5 = getelementptr inbounds i8, ptr %1, i64 8
  %6 = load ptr, ptr %5, align 8
  %7 = getelementptr i8, ptr %4, i64 -24
  %8 = load i64, ptr %7, align 8
  %9 = getelementptr inbounds i8, ptr %0, i64 %8
  store ptr %6, ptr %9, align 8
  %10 = getelementptr inbounds i8, ptr %1, i64 16
  %11 = load ptr, ptr %10, align 8
  %12 = load ptr, ptr %0, align 8
  %13 = getelementptr i8, ptr %12, i64 -24
  %14 = load i64, ptr %13, align 8
  %15 = getelementptr i8, ptr %0, i64 %14
  %16 = getelementptr i8, ptr %15, i64 16
  store ptr %11, ptr %16, align 8
  %17 = getelementptr inbounds i8, ptr %1, i64 24
  %18 = load ptr, ptr %17, align 8
  %19 = load ptr, ptr %0, align 8
  %20 = getelementptr i8, ptr %19, i64 -24
  %21 = load i64, ptr %20, align 8
  %22 = getelementptr i8, ptr %0, i64 %21
  %23 = getelementptr i8, ptr %22, i64 24
  store ptr %18, ptr %23, align 8
  %24 = getelementptr inbounds i8, ptr %1, i64 32
  %25 = load ptr, ptr %24, align 8
  %26 = load ptr, ptr %0, align 8
  %27 = getelementptr i8, ptr %26, i64 -24
  %28 = load i64, ptr %27, align 8
  %29 = getelementptr i8, ptr %0, i64 %28
  %30 = getelementptr i8, ptr %29, i64 48
  store ptr %25, ptr %30, align 8
  %31 = getelementptr inbounds i8, ptr %0, i64 8
  tail call void @llvm.experimental.noalias.scope.decl(metadata !64)
  %32 = tail call noalias noundef nonnull dereferenceable(1) ptr @_Znwm(i64 noundef 1) #38, !noalias !64
  store ptr %32, ptr %31, align 8, !alias.scope !64
  ret void
}